target datalayout = "e-m:e-p270:32:32-p271:32:32-p272:64:64-i64:64-i128:128-f80:128-n8:16:32:64-S128"
target triple = "x86_64-pc-linux-gnu"

%struct.DWTContext = type { ptr, ptr, i32, i32, i32, i32, i32, ptr, %union.anon, %union.anon, ptr, ptr, ptr, ptr, [8 x %struct.DWTCompose] }
%union.anon = type { ptr }
%struct.DWTCompose = type { [8 x ptr], i32 }

; Function Attrs: nounwind uwtable
define void @ff_spatial_idwt_slice2(ptr noundef %0, i32 noundef %1) #0 {
  %3 = alloca ptr, align 8
  %4 = alloca i32, align 4
  %5 = alloca i32, align 4
  %6 = alloca i32, align 4
  %7 = alloca i32, align 4
  %8 = alloca i32, align 4
  %9 = alloca i32, align 4
  store ptr %0, ptr %3, align 8, !tbaa !4
  store i32 %1, ptr %4, align 4, !tbaa !11
  call void @llvm.lifetime.start.p0(i64 4, ptr %5) #5
  call void @llvm.lifetime.start.p0(i64 4, ptr %6) #5
  %10 = load ptr, ptr %3, align 8, !tbaa !4
  %11 = getelementptr inbounds nuw %struct.DWTContext, ptr %10, i32 0, i32 6
  %12 = load i32, ptr %11, align 8, !tbaa !34
  store i32 %12, ptr %6, align 4, !tbaa !11
  %13 = load ptr, ptr %3, align 8, !tbaa !4
  %14 = getelementptr inbounds nuw %struct.DWTContext, ptr %13, i32 0, i32 5
  %15 = load i32, ptr %14, align 4, !tbaa !26
  %16 = sub nsw i32 %15, 1
  store i32 %16, ptr %5, align 4, !tbaa !11
  br label %17

17:                                               ; preds = %72, %2
  %18 = load i32, ptr %5, align 4, !tbaa !11
  %19 = icmp sge i32 %18, 0
  br i1 %19, label %20, label %75

20:                                               ; preds = %17
  call void @llvm.lifetime.start.p0(i64 4, ptr %7) #5
  %21 = load ptr, ptr %3, align 8, !tbaa !4
  %22 = getelementptr inbounds nuw %struct.DWTContext, ptr %21, i32 0, i32 2
  %23 = load i32, ptr %22, align 8, !tbaa !19
  %24 = load i32, ptr %5, align 4, !tbaa !11
  %25 = ashr i32 %23, %24
  store i32 %25, ptr %7, align 4, !tbaa !11
  call void @llvm.lifetime.start.p0(i64 4, ptr %8) #5
  %26 = load ptr, ptr %3, align 8, !tbaa !4
  %27 = getelementptr inbounds nuw %struct.DWTContext, ptr %26, i32 0, i32 3
  %28 = load i32, ptr %27, align 4, !tbaa !21
  %29 = load i32, ptr %5, align 4, !tbaa !11
  %30 = ashr i32 %28, %29
  store i32 %30, ptr %8, align 4, !tbaa !11
  call void @llvm.lifetime.start.p0(i64 4, ptr %9) #5
  %31 = load ptr, ptr %3, align 8, !tbaa !4
  %32 = getelementptr inbounds nuw %struct.DWTContext, ptr %31, i32 0, i32 4
  %33 = load i32, ptr %32, align 8, !tbaa !23
  %34 = load i32, ptr %5, align 4, !tbaa !11
  %35 = shl i32 %33, %34
  store i32 %35, ptr %9, align 4, !tbaa !11
  br label %36

36:                                               ; preds = %62, %20
  %37 = load ptr, ptr %3, align 8, !tbaa !4
  %38 = getelementptr inbounds nuw %struct.DWTContext, ptr %37, i32 0, i32 14
  %39 = load i32, ptr %5, align 4, !tbaa !11
  %40 = sext i32 %39 to i64
  %41 = getelementptr inbounds [8 x %struct.DWTCompose], ptr %38, i64 0, i64 %40
  %42 = getelementptr inbounds nuw %struct.DWTCompose, ptr %41, i32 0, i32 1
  %43 = load i32, ptr %42, align 8, !tbaa !27
  %44 = load i32, ptr %4, align 4, !tbaa !11
  %45 = load i32, ptr %5, align 4, !tbaa !11
  %46 = ashr i32 %44, %45
  %47 = load i32, ptr %6, align 4, !tbaa !11
  %48 = add nsw i32 %46, %47
  %49 = load i32, ptr %8, align 4, !tbaa !11
  %50 = icmp sgt i32 %48, %49
  br i1 %50, label %51, label %53

51:                                               ; preds = %36
  %52 = load i32, ptr %8, align 4, !tbaa !11
  br label %59

53:                                               ; preds = %36
  %54 = load i32, ptr %4, align 4, !tbaa !11
  %55 = load i32, ptr %5, align 4, !tbaa !11
  %56 = ashr i32 %54, %55
  %57 = load i32, ptr %6, align 4, !tbaa !11
  %58 = add nsw i32 %56, %57
  br label %59

59:                                               ; preds = %53, %51
  %60 = phi i32 [ %52, %51 ], [ %58, %53 ]
  %61 = icmp sle i32 %43, %60
  br i1 %61, label %62, label %71

62:                                               ; preds = %59
  %63 = load ptr, ptr %3, align 8, !tbaa !4
  %64 = getelementptr inbounds nuw %struct.DWTContext, ptr %63, i32 0, i32 7
  %65 = load ptr, ptr %64, align 8, !tbaa !31
  %66 = load ptr, ptr %3, align 8, !tbaa !4
  %67 = load i32, ptr %5, align 4, !tbaa !11
  %68 = load i32, ptr %7, align 4, !tbaa !11
  %69 = load i32, ptr %8, align 4, !tbaa !11
  %70 = load i32, ptr %9, align 4, !tbaa !11
  call void %65(ptr noundef %66, i32 noundef %67, i32 noundef %68, i32 noundef %69, i32 noundef %70)
  br label %36, !llvm.loop !40

71:                                               ; preds = %59
  call void @llvm.lifetime.end.p0(i64 4, ptr %9) #5
  call void @llvm.lifetime.end.p0(i64 4, ptr %8) #5
  call void @llvm.lifetime.end.p0(i64 4, ptr %7) #5
  br label %72

72:                                               ; preds = %71
  %73 = load i32, ptr %5, align 4, !tbaa !11
  %74 = add nsw i32 %73, -1
  store i32 %74, ptr %5, align 4, !tbaa !11
  br label %17, !llvm.loop !41

75:                                               ; preds = %17
  call void @llvm.lifetime.end.p0(i64 4, ptr %6) #5
  call void @llvm.lifetime.end.p0(i64 4, ptr %5) #5
  ret void
}