; Function Attrs: nounwind uwtable
define void @ff_spatial_idwt_slice2(ptr noundef %0, i32 noundef %1) local_unnamed_addr #0 {
  %3 = getelementptr inbounds nuw i8, ptr %0, i64 32
  %4 = load i32, ptr %3, align 8, !tbaa !34
  %5 = getelementptr inbounds nuw i8, ptr %0, i64 28
  %6 = load i32, ptr %5, align 4, !tbaa !21
  %7 = icmp sgt i32 %6, 0
  br i1 %7, label %.lr.ph30, label %._crit_edge

.lr.ph30:                                         ; preds = %2
  %8 = getelementptr inbounds nuw i8, ptr %0, i64 16
  %9 = getelementptr inbounds nuw i8, ptr %0, i64 20
  %10 = getelementptr inbounds nuw i8, ptr %0, i64 24
  %11 = getelementptr i8, ptr %0, i64 160
  %12 = getelementptr inbounds nuw i8, ptr %0, i64 40
  %13 = zext nneg i32 %6 to i64
  br label %15

.loopexit:                                        ; preds = %.lr.ph, %15
  %14 = icmp samesign ugt i64 %indvars.iv, 1
  br i1 %14, label %15, label %._crit_edge, !llvm.loop !37

15:                                               ; preds = %.lr.ph30, %.loopexit
  %indvars.iv = phi i64 [ %13, %.lr.ph30 ], [ %indvars.iv.next, %.loopexit ]
  %indvars.iv.next = add nsw i64 %indvars.iv, -1
  %16 = load i32, ptr %8, align 8, !tbaa !14
  %17 = trunc nuw nsw i64 %indvars.iv.next to i32
  %18 = ashr i32 %16, %17
  %19 = load i32, ptr %9, align 4, !tbaa !16
  %20 = ashr i32 %19, %17
  %21 = load i32, ptr %10, align 8, !tbaa !18
  %22 = shl i32 %21, %17
  %.idx = mul nuw nsw i64 %indvars.iv.next, 72
  %23 = getelementptr i8, ptr %11, i64 %.idx
  %24 = ashr i32 %1, %17
  %25 = add nsw i32 %24, %4
  %. = tail call i32 @llvm.smin.i32(i32 %25, i32 %20)
  %26 = load i32, ptr %23, align 8, !tbaa !23
  %.not27 = icmp sgt i32 %26, %.
  br i1 %.not27, label %.loopexit, label %.lr.ph

.lr.ph:                                           ; preds = %15, %.lr.ph
  %27 = load ptr, ptr %12, align 8, !tbaa !28
  tail call void %27(ptr noundef nonnull %0, i32 noundef %17, i32 noundef %18, i32 noundef %20, i32 noundef %22) #6
  %28 = load i32, ptr %23, align 8, !tbaa !23
  %.not = icmp sgt i32 %28, %.
  br i1 %.not, label %.loopexit, label %.lr.ph, !llvm.loop !38

._crit_edge:                                      ; preds = %.loopexit, %2
  ret void
}